target datalayout = "e-m:e-p270:32:32-p271:32:32-p272:64:64-i64:64-i128:128-f80:128-n8:16:32:64-S128"
target triple = "x86_64-pc-linux-gnu"

@.str.1 = private unnamed_addr constant [29 x i8] c"No list was given to fill in\00", align 1

; Function Attrs: nounwind uwtable
define dso_local i32 @slurm_addto_step_list(ptr noundef %0, ptr noundef %1) #0 {
  %3 = alloca i32, align 4
  %4 = alloca ptr, align 8
  %5 = alloca ptr, align 8
  store ptr %0, ptr %4, align 8
  store ptr %1, ptr %5, align 8
  %6 = load ptr, ptr %4, align 8
  %7 = icmp ne ptr %6, null
  br i1 %7, label %10, label %8

8:                                                ; preds = %2
  %9 = call i32 (ptr, ...) @error(ptr noundef @.str.1)
  store i32 0, ptr %3, align 4
  br label %14

10:                                               ; preds = %2
  %11 = load ptr, ptr %4, align 8
  %12 = load ptr, ptr %5, align 8
  %13 = call i32 @slurm_parse_char_list(ptr noundef %11, ptr noundef %12, ptr noundef null, ptr noundef @_addto_step_list_internal)
  store i32 %13, ptr %3, align 4
  br label %14

14:                                               ; preds = %10, %8
  %15 = load i32, ptr %3, align 4
  ret i32 %15
}