; Function Attrs: nounwind uwtable
define dso_local i32 @slurm_addto_step_list(ptr noundef %0, ptr noundef %1) local_unnamed_addr #1 {
  %.not = icmp eq ptr %0, null
  br i1 %.not, label %3, label %5

3:                                                ; preds = %2
  %4 = tail call i32 (ptr, ...) @error(ptr noundef nonnull @.str.1) #24
  br label %7

5:                                                ; preds = %2
  %6 = tail call i32 @slurm_parse_char_list(ptr noundef nonnull %0, ptr noundef %1, ptr noundef null, ptr noundef nonnull @_addto_step_list_internal)
  br label %7

7:                                                ; preds = %5, %3
  %.0 = phi i32 [ %6, %5 ], [ 0, %3 ]
  ret i32 %.0
}